; Function Attrs: nounwind sspstrong uwtable
define range(i32 0, 2) i32 @FLAC__metadata_object_cuesheet_insert_blank_track(ptr noundef captures(none) %0, i32 noundef %1) local_unnamed_addr #0 {
  %3 = getelementptr inbounds nuw i8, ptr %0, i64 164
  %4 = load i32, ptr %3, align 4, !tbaa !57
  %5 = add i32 %4, 1
  %6 = tail call i32 @FLAC__metadata_object_cuesheet_resize_tracks(ptr noundef %0, i32 noundef %5)
  %.not.i = icmp eq i32 %6, 0
  br i1 %.not.i, label %FLAC__metadata_object_cuesheet_insert_track.exit, label %7

7:                                                ; preds = %2
  %8 = getelementptr inbounds nuw i8, ptr %0, i64 168
  %9 = load ptr, ptr %8, align 8, !tbaa !58
  %10 = add i32 %1, 1
  %11 = zext i32 %10 to i64
  %12 = getelementptr inbounds nuw %struct.FLAC__StreamMetadata_CueSheet_Track, ptr %9, i64 %11
  %13 = zext i32 %1 to i64
  %14 = getelementptr inbounds nuw %struct.FLAC__StreamMetadata_CueSheet_Track, ptr %9, i64 %13
  %15 = load i32, ptr %3, align 4, !tbaa !57
  %16 = xor i32 %1, -1
  %17 = add i32 %15, %16
  %18 = zext i32 %17 to i64
  %19 = shl nuw nsw i64 %18, 5
  tail call void @llvm.memmove.p0.p0.i64(ptr noundef nonnull align 1 %12, ptr noundef nonnull align 1 %14, i64 noundef range(i64 0, 137438953441) %19, i1 noundef false) #31
  %20 = load ptr, ptr %8, align 8, !tbaa !58
  %21 = getelementptr inbounds nuw %struct.FLAC__StreamMetadata_CueSheet_Track, ptr %20, i64 %13, i32 4
  store i8 0, ptr %21, align 1, !tbaa !24
  %22 = getelementptr inbounds nuw %struct.FLAC__StreamMetadata_CueSheet_Track, ptr %20, i64 %13, i32 5
  store ptr null, ptr %22, align 8, !tbaa !21
  %23 = load ptr, ptr %8, align 8, !tbaa !13
  %24 = getelementptr inbounds nuw %struct.FLAC__StreamMetadata_CueSheet_Track, ptr %23, i64 %13
  %25 = getelementptr inbounds nuw i8, ptr %24, i64 24
  %26 = load ptr, ptr %25, align 8, !tbaa !21
  tail call void @llvm.memset.p0.i64(ptr noundef nonnull align 8 dereferenceable(32) %24, i8 0, i64 32, i1 false)
  tail call void @free(ptr noundef %26) #31
  %27 = load i32, ptr @FLAC__STREAM_METADATA_CUESHEET_MEDIA_CATALOG_NUMBER_LEN, align 4, !tbaa !9
  %28 = load i32, ptr @FLAC__STREAM_METADATA_CUESHEET_LEAD_IN_LEN, align 4, !tbaa !9
  %29 = add i32 %28, %27
  %30 = load i32, ptr @FLAC__STREAM_METADATA_CUESHEET_IS_CD_LEN, align 4, !tbaa !9
  %31 = add i32 %29, %30
  %32 = load i32, ptr @FLAC__STREAM_METADATA_CUESHEET_RESERVED_LEN, align 4, !tbaa !9
  %33 = add i32 %31, %32
  %34 = load i32, ptr @FLAC__STREAM_METADATA_CUESHEET_NUM_TRACKS_LEN, align 4, !tbaa !9
  %35 = add i32 %33, %34
  %36 = lshr i32 %35, 3
  %37 = getelementptr inbounds nuw i8, ptr %0, i64 8
  %38 = load i32, ptr %3, align 4, !tbaa !13
  %39 = load i32, ptr @FLAC__STREAM_METADATA_CUESHEET_TRACK_OFFSET_LEN, align 4, !tbaa !9
  %40 = load i32, ptr @FLAC__STREAM_METADATA_CUESHEET_TRACK_NUMBER_LEN, align 4, !tbaa !9
  %41 = add i32 %40, %39
  %42 = load i32, ptr @FLAC__STREAM_METADATA_CUESHEET_TRACK_ISRC_LEN, align 4, !tbaa !9
  %43 = add i32 %41, %42
  %44 = load i32, ptr @FLAC__STREAM_METADATA_CUESHEET_TRACK_TYPE_LEN, align 4, !tbaa !9
  %45 = add i32 %43, %44
  %46 = load i32, ptr @FLAC__STREAM_METADATA_CUESHEET_TRACK_PRE_EMPHASIS_LEN, align 4, !tbaa !9
  %47 = add i32 %45, %46
  %48 = load i32, ptr @FLAC__STREAM_METADATA_CUESHEET_TRACK_RESERVED_LEN, align 4, !tbaa !9
  %49 = add i32 %47, %48
  %50 = load i32, ptr @FLAC__STREAM_METADATA_CUESHEET_TRACK_NUM_INDICES_LEN, align 4, !tbaa !9
  %51 = add i32 %49, %50
  %52 = mul i32 %51, %38
  %53 = lshr i32 %52, 3
  %54 = add nuw nsw i32 %53, %36
  store i32 %54, ptr %37, align 8, !tbaa !8
  %.not.i.i.i = icmp eq i32 %38, 0
  br i1 %.not.i.i.i, label %FLAC__metadata_object_cuesheet_insert_track.exit, label %.lr.ph.i.i.i

.lr.ph.i.i.i:                                     ; preds = %7
  %55 = load ptr, ptr %8, align 8, !tbaa !13
  %56 = load i32, ptr @FLAC__STREAM_METADATA_CUESHEET_INDEX_OFFSET_LEN, align 4, !tbaa !9
  %57 = load i32, ptr @FLAC__STREAM_METADATA_CUESHEET_INDEX_NUMBER_LEN, align 4, !tbaa !9
  %58 = add i32 %57, %56
  %59 = load i32, ptr @FLAC__STREAM_METADATA_CUESHEET_INDEX_RESERVED_LEN, align 4, !tbaa !9
  %60 = add i32 %58, %59
  %wide.trip.count.i.i.i = zext i32 %38 to i64
  br label %61

61:                                               ; preds = %61, %.lr.ph.i.i.i
  %indvars.iv.i.i.i = phi i64 [ 0, %.lr.ph.i.i.i ], [ %indvars.iv.next.i.i.i, %61 ]
  %62 = phi i32 [ %54, %.lr.ph.i.i.i ], [ %68, %61 ]
  %63 = getelementptr inbounds nuw %struct.FLAC__StreamMetadata_CueSheet_Track, ptr %55, i64 %indvars.iv.i.i.i, i32 4
  %64 = load i8, ptr %63, align 1, !tbaa !24
  %65 = zext i8 %64 to i32
  %66 = mul i32 %60, %65
  %67 = lshr i32 %66, 3
  %68 = add i32 %67, %62
  %indvars.iv.next.i.i.i = add nuw nsw i64 %indvars.iv.i.i.i, 1
  %exitcond.not.i.i.i = icmp eq i64 %indvars.iv.next.i.i.i, %wide.trip.count.i.i.i
  br i1 %exitcond.not.i.i.i, label %._crit_edge.i.i.i, label %61, !llvm.loop !95

._crit_edge.i.i.i:                                ; preds = %61
  store i32 %68, ptr %37, align 8, !tbaa !8
  br label %FLAC__metadata_object_cuesheet_insert_track.exit

FLAC__metadata_object_cuesheet_insert_track.exit: ; preds = %._crit_edge.i.i.i, %7, %2
  %.0.i = phi i32 [ 0, %2 ], [ 1, %7 ], [ 1, %._crit_edge.i.i.i ]
  ret i32 %.0.i
}